; Function Attrs: mustprogress uwtable
define dso_local void @_ZN10V3ParseImp14lexUnputStringEPKcm(ptr nocapture nonnull readnone align 8 %0, ptr nocapture noundef readonly %1, i64 noundef %2) #4 align 2 {
  %4 = load ptr, ptr @_ZN10V3ParseImp8s_parsepE, align 8
  %5 = getelementptr inbounds i8, ptr %4, i64 24
  %6 = load ptr, ptr %5, align 8
  %.not11.i = icmp eq i64 %2, 0
  br i1 %.not11.i, label %_ZN7V3Lexer11unputStringEPKcm.exit, label %.lr.ph.i

.lr.ph.i:                                         ; preds = %3
  %7 = getelementptr i8, ptr %1, i64 %2
  %8 = getelementptr inbounds i8, ptr %6, i64 8
  %9 = getelementptr inbounds i8, ptr %6, i64 608
  %10 = getelementptr inbounds i8, ptr %6, i64 600
  %11 = getelementptr inbounds i8, ptr %6, i64 648
  %12 = getelementptr inbounds i8, ptr %6, i64 632
  %13 = getelementptr inbounds i8, ptr %6, i64 604
  %.pre.i = load ptr, ptr %8, align 8
  %.pre18.i = load ptr, ptr %9, align 8
  %.pre19.i = load i8, ptr %10, align 8
  br label %14

14:                                               ; preds = %_ZN11V3LexerBase7yyunputEiPc.exit.i, %.lr.ph.i
  %15 = phi i8 [ %.pre19.i, %.lr.ph.i ], [ %72, %_ZN11V3LexerBase7yyunputEiPc.exit.i ]
  %16 = phi ptr [ %.pre18.i, %.lr.ph.i ], [ %71, %_ZN11V3LexerBase7yyunputEiPc.exit.i ]
  %17 = phi ptr [ %.pre.i, %.lr.ph.i ], [ %.019.i.i, %_ZN11V3LexerBase7yyunputEiPc.exit.i ]
  %.pn13.i = phi ptr [ %7, %.lr.ph.i ], [ %.0.i, %_ZN11V3LexerBase7yyunputEiPc.exit.i ]
  %.0612.i = phi i64 [ %2, %.lr.ph.i ], [ %18, %_ZN11V3LexerBase7yyunputEiPc.exit.i ]
  %.0.i = getelementptr inbounds i8, ptr %.pn13.i, i64 -1
  %18 = add i64 %.0612.i, -1
  %19 = load i8, ptr %.0.i, align 1
  store i8 %15, ptr %16, align 1
  %20 = load ptr, ptr %11, align 8
  %21 = load i64, ptr %12, align 8
  %22 = getelementptr inbounds ptr, ptr %20, i64 %21
  %23 = load ptr, ptr %22, align 8
  %24 = getelementptr inbounds i8, ptr %23, i64 8
  %25 = load ptr, ptr %24, align 8
  %26 = getelementptr inbounds i8, ptr %25, i64 2
  %27 = icmp ult ptr %16, %26
  br i1 %27, label %28, label %_ZN11V3LexerBase7yyunputEiPc.exit.i

28:                                               ; preds = %14
  %29 = load i32, ptr %13, align 4
  %30 = getelementptr inbounds i8, ptr %23, i64 24
  %31 = load i32, ptr %30, align 8
  %32 = sext i32 %31 to i64
  %33 = getelementptr i8, ptr %25, i64 %32
  %34 = getelementptr i8, ptr %33, i64 2
  %35 = sext i32 %29 to i64
  %36 = getelementptr i8, ptr %25, i64 %35
  %37 = getelementptr i8, ptr %36, i64 2
  %38 = icmp ugt ptr %37, %25
  br i1 %38, label %.lr.ph.i.i, label %._crit_edge.i.i

.lr.ph.i.i:                                       ; preds = %28, %.lr.ph.i.i
  %.028.i.i = phi ptr [ %39, %.lr.ph.i.i ], [ %37, %28 ]
  %.01827.i.i = phi ptr [ %41, %.lr.ph.i.i ], [ %34, %28 ]
  %39 = getelementptr inbounds i8, ptr %.028.i.i, i64 -1
  %40 = load i8, ptr %39, align 1
  %41 = getelementptr inbounds i8, ptr %.01827.i.i, i64 -1
  store i8 %40, ptr %41, align 1
  %42 = load ptr, ptr %11, align 8
  %43 = load i64, ptr %12, align 8
  %44 = getelementptr inbounds ptr, ptr %42, i64 %43
  %45 = load ptr, ptr %44, align 8
  %46 = getelementptr inbounds i8, ptr %45, i64 8
  %47 = load ptr, ptr %46, align 8
  %48 = icmp ugt ptr %39, %47
  br i1 %48, label %.lr.ph.i.i, label %._crit_edge.loopexit.i.i, !llvm.loop !12

._crit_edge.loopexit.i.i:                         ; preds = %.lr.ph.i.i
  %.phi.trans.insert.i.i = getelementptr inbounds i8, ptr %45, i64 24
  %.pre.i.i = load i32, ptr %.phi.trans.insert.i.i, align 8
  br label %._crit_edge.i.i

._crit_edge.i.i:                                  ; preds = %._crit_edge.loopexit.i.i, %28
  %49 = phi i32 [ %31, %28 ], [ %.pre.i.i, %._crit_edge.loopexit.i.i ]
  %.lcssa26.i.i = phi i64 [ %21, %28 ], [ %43, %._crit_edge.loopexit.i.i ]
  %.lcssa25.i.i = phi ptr [ %20, %28 ], [ %42, %._crit_edge.loopexit.i.i ]
  %.018.lcssa.i.i = phi ptr [ %34, %28 ], [ %41, %._crit_edge.loopexit.i.i ]
  %.0.lcssa.i.i = phi ptr [ %37, %28 ], [ %39, %._crit_edge.loopexit.i.i ]
  %50 = getelementptr inbounds ptr, ptr %.lcssa25.i.i, i64 %.lcssa26.i.i
  %51 = ptrtoint ptr %.018.lcssa.i.i to i64
  %52 = ptrtoint ptr %.0.lcssa.i.i to i64
  %53 = sub i64 %51, %52
  %sext.i.i = shl i64 %53, 32
  %54 = ashr exact i64 %sext.i.i, 32
  %55 = getelementptr inbounds i8, ptr %16, i64 %54
  %56 = getelementptr inbounds i8, ptr %17, i64 %54
  store i32 %49, ptr %13, align 4
  %57 = load ptr, ptr %50, align 8
  %58 = getelementptr inbounds i8, ptr %57, i64 28
  store i32 %49, ptr %58, align 4
  %59 = load ptr, ptr %11, align 8
  %60 = load i64, ptr %12, align 8
  %61 = getelementptr inbounds ptr, ptr %59, i64 %60
  %62 = load ptr, ptr %61, align 8
  %63 = getelementptr inbounds i8, ptr %62, i64 8
  %64 = load ptr, ptr %63, align 8
  %65 = getelementptr inbounds i8, ptr %64, i64 2
  %66 = icmp ult ptr %55, %65
  br i1 %66, label %67, label %_ZN11V3LexerBase7yyunputEiPc.exit.i

67:                                               ; preds = %._crit_edge.i.i
  %68 = load ptr, ptr %6, align 8
  %69 = getelementptr inbounds i8, ptr %68, i64 112
  %70 = load ptr, ptr %69, align 8
  tail call void %70(ptr noundef nonnull align 8 dereferenceable(732) %6, ptr noundef nonnull @.str.27)
  br label %_ZN11V3LexerBase7yyunputEiPc.exit.i

_ZN11V3LexerBase7yyunputEiPc.exit.i:              ; preds = %67, %._crit_edge.i.i, %14
  %.020.i.i = phi ptr [ %55, %67 ], [ %55, %._crit_edge.i.i ], [ %16, %14 ]
  %.019.i.i = phi ptr [ %56, %67 ], [ %56, %._crit_edge.i.i ], [ %17, %14 ]
  %71 = getelementptr inbounds i8, ptr %.020.i.i, i64 -1
  store i8 %19, ptr %71, align 1
  store ptr %.019.i.i, ptr %8, align 8
  %72 = load i8, ptr %71, align 1
  store i8 %72, ptr %10, align 8
  store ptr %71, ptr %9, align 8
  %.not.i = icmp eq i64 %18, 0
  br i1 %.not.i, label %_ZN7V3Lexer11unputStringEPKcm.exit, label %14, !llvm.loop !13

_ZN7V3Lexer11unputStringEPKcm.exit:               ; preds = %_ZN11V3LexerBase7yyunputEiPc.exit.i, %3
  ret void
}